target datalayout = "e-m:e-p270:32:32-p271:32:32-p272:64:64-i64:64-i128:128-f80:128-n8:16:32:64-S128"
target triple = "x86_64-pc-linux-gnu"

%struct._h264_capability_t = type { ptr, ptr, ptr }

@proto_h264 = internal global i32 0, align 4
@h264_handle = internal global ptr null, align 8
@.str.390 = private unnamed_addr constant [21 x i8] c"rtp_dyn_payload_type\00", align 1
@.str.391 = private unnamed_addr constant [5 x i8] c"H264\00", align 1
@.str.392 = private unnamed_addr constant [9 x i8] c"H264-SVC\00", align 1
@.str.393 = private unnamed_addr constant [9 x i8] c"X-H264UC\00", align 1
@h264_name_handle = internal global ptr null, align 8
@.str.394 = private unnamed_addr constant [14 x i8] c"h245.gef.name\00", align 1
@.str.395 = private unnamed_addr constant [17 x i8] c"h245.gef.content\00", align 1
@.str.396 = private unnamed_addr constant [7 x i8] c"rtp.pt\00", align 1
@.str.397 = private unnamed_addr constant [1 x i8] zeroinitializer, align 1

; Function Attrs: null_pointer_is_valid sspstrong uwtable
define hidden void @proto_reg_handoff_h264() #0 {
  %1 = alloca ptr, align 8
  call void @llvm.lifetime.start.p0(i64 8, ptr %1) #7
  %2 = load ptr, ptr @h264_handle, align 8
  call void @dissector_add_string(ptr noundef @.str.390, ptr noundef @.str.391, ptr noundef %2)
  %3 = load ptr, ptr @h264_handle, align 8
  call void @dissector_add_string(ptr noundef @.str.390, ptr noundef @.str.392, ptr noundef %3)
  %4 = load ptr, ptr @h264_handle, align 8
  call void @dissector_add_string(ptr noundef @.str.390, ptr noundef @.str.393, ptr noundef %4)
  %5 = load i32, ptr @proto_h264, align 4
  %6 = call ptr @create_dissector_handle(ptr noundef @dissect_h264_name, i32 noundef %5)
  store ptr %6, ptr @h264_name_handle, align 8
  store ptr @h264_capability_tab, ptr %1, align 8
  br label %7

7:                                                ; preds = %37, %0
  %8 = load ptr, ptr %1, align 8
  %9 = getelementptr inbounds nuw %struct._h264_capability_t, ptr %8, i32 0, i32 0
  %10 = load ptr, ptr %9, align 8
  %11 = icmp ne ptr %10, null
  br i1 %11, label %12, label %40

12:                                               ; preds = %7
  %13 = load ptr, ptr %1, align 8
  %14 = getelementptr inbounds nuw %struct._h264_capability_t, ptr %13, i32 0, i32 1
  %15 = load ptr, ptr %14, align 8
  %16 = icmp ne ptr %15, null
  br i1 %16, label %17, label %22

17:                                               ; preds = %12
  %18 = load ptr, ptr %1, align 8
  %19 = getelementptr inbounds nuw %struct._h264_capability_t, ptr %18, i32 0, i32 0
  %20 = load ptr, ptr %19, align 8
  %21 = load ptr, ptr @h264_name_handle, align 8
  call void @dissector_add_string(ptr noundef @.str.394, ptr noundef %20, ptr noundef %21)
  br label %22

22:                                               ; preds = %17, %12
  %23 = load ptr, ptr %1, align 8
  %24 = getelementptr inbounds nuw %struct._h264_capability_t, ptr %23, i32 0, i32 2
  %25 = load ptr, ptr %24, align 8
  %26 = icmp ne ptr %25, null
  br i1 %26, label %27, label %36

27:                                               ; preds = %22
  %28 = load ptr, ptr %1, align 8
  %29 = getelementptr inbounds nuw %struct._h264_capability_t, ptr %28, i32 0, i32 0
  %30 = load ptr, ptr %29, align 8
  %31 = load ptr, ptr %1, align 8
  %32 = getelementptr inbounds nuw %struct._h264_capability_t, ptr %31, i32 0, i32 2
  %33 = load ptr, ptr %32, align 8
  %34 = load i32, ptr @proto_h264, align 4
  %35 = call ptr @create_dissector_handle(ptr noundef %33, i32 noundef %34)
  call void @dissector_add_string(ptr noundef @.str.395, ptr noundef %30, ptr noundef %35)
  br label %36

36:                                               ; preds = %27, %22
  br label %37

37:                                               ; preds = %36
  %38 = load ptr, ptr %1, align 8
  %39 = getelementptr %struct._h264_capability_t, ptr %38, i32 1
  store ptr %39, ptr %1, align 8
  br label %7, !llvm.loop !11

40:                                               ; preds = %7
  %41 = load ptr, ptr @h264_handle, align 8
  call void @dissector_add_uint_range_with_preference(ptr noundef @.str.396, ptr noundef @.str.397, ptr noundef %41)
  call void @llvm.lifetime.end.p0(i64 8, ptr %1) #7
  ret void
}