; Function Attrs: null_pointer_is_valid sspstrong uwtable
define hidden void @proto_reg_handoff_h264() local_unnamed_addr #0 {
.lr.ph.preheader:
  %0 = load ptr, ptr @h264_handle, align 8
  tail call void @dissector_add_string(ptr noundef nonnull @.str.390, ptr noundef nonnull @.str.391, ptr noundef %0)
  %1 = load ptr, ptr @h264_handle, align 8
  tail call void @dissector_add_string(ptr noundef nonnull @.str.390, ptr noundef nonnull @.str.392, ptr noundef %1)
  %2 = load ptr, ptr @h264_handle, align 8
  tail call void @dissector_add_string(ptr noundef nonnull @.str.390, ptr noundef nonnull @.str.393, ptr noundef %2)
  %3 = load i32, ptr @proto_h264, align 4
  %4 = tail call ptr @create_dissector_handle(ptr noundef nonnull @dissect_h264_name, i32 noundef %3)
  store ptr %4, ptr @h264_name_handle, align 8
  br label %.lr.ph

.lr.ph:                                           ; preds = %.lr.ph.preheader, %17
  %5 = phi ptr [ %19, %17 ], [ @.str.631, %.lr.ph.preheader ]
  %.012 = phi ptr [ %18, %17 ], [ @h264_capability_tab, %.lr.ph.preheader ]
  %6 = getelementptr inbounds nuw i8, ptr %.012, i64 8
  %7 = load ptr, ptr %6, align 8
  %.not9 = icmp eq ptr %7, null
  br i1 %.not9, label %10, label %8

8:                                                ; preds = %.lr.ph
  %9 = load ptr, ptr @h264_name_handle, align 8
  tail call void @dissector_add_string(ptr noundef nonnull @.str.394, ptr noundef nonnull %5, ptr noundef %9)
  br label %10

10:                                               ; preds = %8, %.lr.ph
  %11 = getelementptr inbounds nuw i8, ptr %.012, i64 16
  %12 = load ptr, ptr %11, align 8
  %.not10 = icmp eq ptr %12, null
  br i1 %.not10, label %17, label %13

13:                                               ; preds = %10
  %14 = load ptr, ptr %.012, align 8
  %15 = load i32, ptr @proto_h264, align 4
  %16 = tail call ptr @create_dissector_handle(ptr noundef nonnull %12, i32 noundef %15)
  tail call void @dissector_add_string(ptr noundef nonnull @.str.395, ptr noundef %14, ptr noundef %16)
  br label %17

17:                                               ; preds = %10, %13
  %18 = getelementptr i8, ptr %.012, i64 24
  %19 = load ptr, ptr %18, align 8
  %.not = icmp eq ptr %19, null
  br i1 %.not, label %._crit_edge, label %.lr.ph, !llvm.loop !22

._crit_edge:                                      ; preds = %17
  %20 = load ptr, ptr @h264_handle, align 8
  tail call void @dissector_add_uint_range_with_preference(ptr noundef nonnull @.str.396, ptr noundef nonnull @.str.397, ptr noundef %20)
  ret void
}